; ModuleID = '22/38.c'
source_filename = "22/38.c"
target datalayout = "e-m:e-p270:32:32-p271:32:32-p272:64:64-i64:64-f80:128-n8:16:32:64-S128"
target triple = "x86_64-pc-linux-gnu"

@.str = private unnamed_addr constant [3 x i8] c"%s\00", align 1
@.str.1 = private unnamed_addr constant [3 x i8] c"No\00", align 1
@.str.2 = private unnamed_addr constant [3 x i8] c"%d\00", align 1

; Function Attrs: noinline nounwind uwtable
define dso_local void @main() #0 {
  %1 = alloca [1600 x i8], align 16
  %2 = alloca [301 x i32], align 16
  %3 = alloca i32, align 4
  %4 = alloca i32, align 4
  %5 = alloca i32, align 4
  %6 = alloca i32, align 4
  %7 = bitcast [301 x i32]* %2 to i8*
  call void @llvm.memset.p0i8.i64(i8* align 16 %7, i8 0, i64 1204, i1 false)
  store i32 0, i32* %4, align 4
  %8 = getelementptr inbounds [1600 x i8], [1600 x i8]* %1, i64 0, i64 0
  %9 = call i32 (i8*, ...) @__isoc99_scanf(i8* getelementptr inbounds ([3 x i8], [3 x i8]* @.str, i64 0, i64 0), i8* %8)
  store i32 0, i32* %3, align 4
  br label %10

10:                                               ; preds = %44, %0
  %11 = load i32, i32* %3, align 4
  %12 = sext i32 %11 to i64
  %13 = getelementptr inbounds [1600 x i8], [1600 x i8]* %1, i64 0, i64 %12
  %14 = load i8, i8* %13, align 1
  %15 = sext i8 %14 to i32
  %16 = icmp ne i32 %15, 0
  br i1 %16, label %17, label %47

17:                                               ; preds = %10
  %18 = load i32, i32* %3, align 4
  %19 = sext i32 %18 to i64
  %20 = getelementptr inbounds [1600 x i8], [1600 x i8]* %1, i64 0, i64 %19
  %21 = load i8, i8* %20, align 1
  %22 = sext i8 %21 to i32
  %23 = icmp ne i32 %22, 44
  br i1 %23, label %24, label %40

24:                                               ; preds = %17
  %25 = load i32, i32* %4, align 4
  %26 = sext i32 %25 to i64
  %27 = getelementptr inbounds [301 x i32], [301 x i32]* %2, i64 0, i64 %26
  %28 = load i32, i32* %27, align 4
  %29 = mul nsw i32 %28, 10
  %30 = load i32, i32* %3, align 4
  %31 = sext i32 %30 to i64
  %32 = getelementptr inbounds [1600 x i8], [1600 x i8]* %1, i64 0, i64 %31
  %33 = load i8, i8* %32, align 1
  %34 = sext i8 %33 to i32
  %35 = add nsw i32 %29, %34
  %36 = sub nsw i32 %35, 48
  %37 = load i32, i32* %4, align 4
  %38 = sext i32 %37 to i64
  %39 = getelementptr inbounds [301 x i32], [301 x i32]* %2, i64 0, i64 %38
  store i32 %36, i32* %39, align 4
  br label %43

40:                                               ; preds = %17
  %41 = load i32, i32* %4, align 4
  %42 = add nsw i32 %41, 1
  store i32 %42, i32* %4, align 4
  br label %43

43:                                               ; preds = %40, %24
  br label %44

44:                                               ; preds = %43
  %45 = load i32, i32* %3, align 4
  %46 = add nsw i32 %45, 1
  store i32 %46, i32* %3, align 4
  br label %10

47:                                               ; preds = %10
  %48 = load i32, i32* %4, align 4
  %49 = add nsw i32 %48, 1
  store i32 %49, i32* %5, align 4
  store i32 0, i32* %3, align 4
  br label %50

50:                                               ; preds = %97, %47
  %51 = load i32, i32* %3, align 4
  %52 = load i32, i32* %5, align 4
  %53 = sub nsw i32 %52, 1
  %54 = icmp slt i32 %51, %53
  br i1 %54, label %55, label %100

55:                                               ; preds = %50
  store i32 0, i32* %4, align 4
  br label %56

56:                                               ; preds = %93, %55
  %57 = load i32, i32* %4, align 4
  %58 = load i32, i32* %5, align 4
  %59 = load i32, i32* %3, align 4
  %60 = sub nsw i32 %58, %59
  %61 = sub nsw i32 %60, 1
  %62 = icmp slt i32 %57, %61
  br i1 %62, label %63, label %96

63:                                               ; preds = %56
  %64 = load i32, i32* %4, align 4
  %65 = sext i32 %64 to i64
  %66 = getelementptr inbounds [301 x i32], [301 x i32]* %2, i64 0, i64 %65
  %67 = load i32, i32* %66, align 4
  %68 = load i32, i32* %4, align 4
  %69 = add nsw i32 %68, 1
  %70 = sext i32 %69 to i64
  %71 = getelementptr inbounds [301 x i32], [301 x i32]* %2, i64 0, i64 %70
  %72 = load i32, i32* %71, align 4
  %73 = icmp slt i32 %67, %72
  br i1 %73, label %74, label %92

74:                                               ; preds = %63
  %75 = load i32, i32* %4, align 4
  %76 = sext i32 %75 to i64
  %77 = getelementptr inbounds [301 x i32], [301 x i32]* %2, i64 0, i64 %76
  %78 = load i32, i32* %77, align 4
  store i32 %78, i32* %6, align 4
  %79 = load i32, i32* %4, align 4
  %80 = add nsw i32 %79, 1
  %81 = sext i32 %80 to i64
  %82 = getelementptr inbounds [301 x i32], [301 x i32]* %2, i64 0, i64 %81
  %83 = load i32, i32* %82, align 4
  %84 = load i32, i32* %4, align 4
  %85 = sext i32 %84 to i64
  %86 = getelementptr inbounds [301 x i32], [301 x i32]* %2, i64 0, i64 %85
  store i32 %83, i32* %86, align 4
  %87 = load i32, i32* %6, align 4
  %88 = load i32, i32* %4, align 4
  %89 = add nsw i32 %88, 1
  %90 = sext i32 %89 to i64
  %91 = getelementptr inbounds [301 x i32], [301 x i32]* %2, i64 0, i64 %90
  store i32 %87, i32* %91, align 4
  br label %92

92:                                               ; preds = %74, %63
  br label %93

93:                                               ; preds = %92
  %94 = load i32, i32* %4, align 4
  %95 = add nsw i32 %94, 1
  store i32 %95, i32* %4, align 4
  br label %56

96:                                               ; preds = %56
  br label %97

97:                                               ; preds = %96
  %98 = load i32, i32* %3, align 4
  %99 = add nsw i32 %98, 1
  store i32 %99, i32* %3, align 4
  br label %50

100:                                              ; preds = %50
  store i32 1, i32* %3, align 4
  br label %101

101:                                              ; preds = %115, %100
  %102 = load i32, i32* %3, align 4
  %103 = load i32, i32* %5, align 4
  %104 = icmp slt i32 %102, %103
  br i1 %104, label %105, label %118

105:                                              ; preds = %101
  %106 = getelementptr inbounds [301 x i32], [301 x i32]* %2, i64 0, i64 0
  %107 = load i32, i32* %106, align 16
  %108 = load i32, i32* %3, align 4
  %109 = sext i32 %108 to i64
  %110 = getelementptr inbounds [301 x i32], [301 x i32]* %2, i64 0, i64 %109
  %111 = load i32, i32* %110, align 4
  %112 = icmp ne i32 %107, %111
  br i1 %112, label %113, label %114

113:                                              ; preds = %105
  br label %118

114:                                              ; preds = %105
  br label %115

115:                                              ; preds = %114
  %116 = load i32, i32* %3, align 4
  %117 = add nsw i32 %116, 1
  store i32 %117, i32* %3, align 4
  br label %101

118:                                              ; preds = %113, %101
  %119 = load i32, i32* %3, align 4
  %120 = load i32, i32* %5, align 4
  %121 = icmp eq i32 %119, %120
  br i1 %121, label %122, label %124

122:                                              ; preds = %118
  %123 = call i32 (i8*, ...) @printf(i8* getelementptr inbounds ([3 x i8], [3 x i8]* @.str.1, i64 0, i64 0))
  br label %130

124:                                              ; preds = %118
  %125 = load i32, i32* %3, align 4
  %126 = sext i32 %125 to i64
  %127 = getelementptr inbounds [301 x i32], [301 x i32]* %2, i64 0, i64 %126
  %128 = load i32, i32* %127, align 4
  %129 = call i32 (i8*, ...) @printf(i8* getelementptr inbounds ([3 x i8], [3 x i8]* @.str.2, i64 0, i64 0), i32 %128)
  br label %130

130:                                              ; preds = %124, %122
  ret void
}

; Function Attrs: argmemonly nounwind willreturn
declare void @llvm.memset.p0i8.i64(i8* nocapture writeonly, i8, i64, i1 immarg) #1

declare dso_local i32 @__isoc99_scanf(i8*, ...) #2

declare dso_local i32 @printf(i8*, ...) #2


!llvm.module.flags = !{!0}
!llvm.ident = !{!1}

!0 = !{i32 1, !"wchar_size", i32 4}
!1 = !{!"clang version 10.0.0-4ubuntu1 "}
